target datalayout = "e-m:e-p270:32:32-p271:32:32-p272:64:64-i64:64-i128:128-f80:128-n8:16:32:64-S128"
target triple = "x86_64-pc-linux-gnu"

%struct.grpc_resolved_address = type { [128 x i8], i32 }
%struct.sockaddr = type { i16, [14 x i8] }
%struct.stat = type { i64, i64, i64, i32, i32, i32, i32, i64, i64, i64, i64, %struct.timespec, %struct.timespec, %struct.timespec, [3 x i64] }
%struct.timespec = type { i64, i64 }
%struct.sockaddr_un = type { i16, [108 x i8] }

; Function Attrs: mustprogress nounwind uwtable
define void @_Z33grpc_unlink_if_unix_domain_socketPK21grpc_resolved_address(ptr noundef %0) #8 {
  %2 = alloca ptr, align 8
  %3 = alloca ptr, align 8
  %4 = alloca i32, align 4
  %5 = alloca ptr, align 8
  %6 = alloca %struct.stat, align 8
  store ptr %0, ptr %2, align 8, !tbaa !40
  call void @llvm.lifetime.start.p0(i64 8, ptr %3) #3
  %7 = load ptr, ptr %2, align 8, !tbaa !40
  %8 = getelementptr inbounds nuw %struct.grpc_resolved_address, ptr %7, i32 0, i32 0
  %9 = getelementptr inbounds [128 x i8], ptr %8, i64 0, i64 0
  store ptr %9, ptr %3, align 8, !tbaa !41
  %10 = load ptr, ptr %3, align 8, !tbaa !41
  %11 = getelementptr inbounds nuw %struct.sockaddr, ptr %10, i32 0, i32 0
  %12 = load i16, ptr %11, align 2, !tbaa !43
  %13 = zext i16 %12 to i32
  %14 = icmp ne i32 %13, 1
  br i1 %14, label %15, label %16

15:                                               ; preds = %1
  store i32 1, ptr %4, align 4
  br label %52

16:                                               ; preds = %1
  call void @llvm.lifetime.start.p0(i64 8, ptr %5) #3
  %17 = load ptr, ptr %2, align 8, !tbaa !40
  %18 = getelementptr inbounds nuw %struct.grpc_resolved_address, ptr %17, i32 0, i32 0
  %19 = getelementptr inbounds [128 x i8], ptr %18, i64 0, i64 0
  store ptr %19, ptr %5, align 8, !tbaa !46
  %20 = load ptr, ptr %5, align 8, !tbaa !46
  %21 = getelementptr inbounds nuw %struct.sockaddr_un, ptr %20, i32 0, i32 1
  %22 = getelementptr inbounds [108 x i8], ptr %21, i64 0, i64 0
  %23 = load i8, ptr %22, align 2, !tbaa !22
  %24 = sext i8 %23 to i32
  %25 = icmp eq i32 %24, 0
  br i1 %25, label %26, label %34

26:                                               ; preds = %16
  %27 = load ptr, ptr %5, align 8, !tbaa !46
  %28 = getelementptr inbounds nuw %struct.sockaddr_un, ptr %27, i32 0, i32 1
  %29 = getelementptr inbounds [108 x i8], ptr %28, i64 0, i64 1
  %30 = load i8, ptr %29, align 1, !tbaa !22
  %31 = sext i8 %30 to i32
  %32 = icmp ne i32 %31, 0
  br i1 %32, label %33, label %34

33:                                               ; preds = %26
  store i32 1, ptr %4, align 4
  br label %51

34:                                               ; preds = %26, %16
  call void @llvm.lifetime.start.p0(i64 144, ptr %6) #3
  %35 = load ptr, ptr %5, align 8, !tbaa !46
  %36 = getelementptr inbounds nuw %struct.sockaddr_un, ptr %35, i32 0, i32 1
  %37 = getelementptr inbounds [108 x i8], ptr %36, i64 0, i64 0
  %38 = call i32 @stat(ptr noundef %37, ptr noundef %6) #3
  %39 = icmp eq i32 %38, 0
  br i1 %39, label %40, label %50

40:                                               ; preds = %34
  %41 = getelementptr inbounds nuw %struct.stat, ptr %6, i32 0, i32 3
  %42 = load i32, ptr %41, align 8, !tbaa !48
  %43 = and i32 %42, 61440
  %44 = icmp eq i32 %43, 49152
  br i1 %44, label %45, label %50

45:                                               ; preds = %40
  %46 = load ptr, ptr %5, align 8, !tbaa !46
  %47 = getelementptr inbounds nuw %struct.sockaddr_un, ptr %46, i32 0, i32 1
  %48 = getelementptr inbounds [108 x i8], ptr %47, i64 0, i64 0
  %49 = call i32 @unlink(ptr noundef %48) #3
  br label %50

50:                                               ; preds = %45, %40, %34
  call void @llvm.lifetime.end.p0(i64 144, ptr %6) #3
  store i32 0, ptr %4, align 4
  br label %51

51:                                               ; preds = %50, %33
  call void @llvm.lifetime.end.p0(i64 8, ptr %5) #3
  br label %52

52:                                               ; preds = %51, %15
  call void @llvm.lifetime.end.p0(i64 8, ptr %3) #3
  %53 = load i32, ptr %4, align 4
  switch i32 %53, label %55 [
    i32 0, label %54
    i32 1, label %54
  ]

54:                                               ; preds = %52, %52
  ret void

55:                                               ; preds = %52
  unreachable
}