; Function Attrs: mustprogress nofree nounwind uwtable
define void @_Z33grpc_unlink_if_unix_domain_socketPK21grpc_resolved_address(ptr noundef readonly captures(none) %0) local_unnamed_addr #10 {
  %2 = alloca %struct.stat, align 8
  %3 = load i16, ptr %0, align 2, !tbaa !21
  %.not = icmp eq i16 %3, 1
  br i1 %.not, label %4, label %22

4:                                                ; preds = %1
  %5 = getelementptr inbounds nuw i8, ptr %0, i64 2
  %6 = load i8, ptr %5, align 2, !tbaa !24
  %7 = icmp eq i8 %6, 0
  br i1 %7, label %8, label %11

8:                                                ; preds = %4
  %9 = getelementptr inbounds nuw i8, ptr %0, i64 3
  %10 = load i8, ptr %9, align 1, !tbaa !24
  %.not7 = icmp eq i8 %10, 0
  br i1 %.not7, label %11, label %22

11:                                               ; preds = %8, %4
  call void @llvm.lifetime.start.p0(i64 144, ptr nonnull %2) #16
  %12 = call i32 @stat(ptr noundef nonnull %5, ptr noundef nonnull %2) #16
  %13 = icmp eq i32 %12, 0
  br i1 %13, label %14, label %21

14:                                               ; preds = %11
  %15 = getelementptr inbounds nuw i8, ptr %2, i64 24
  %16 = load i32, ptr %15, align 8, !tbaa !25
  %17 = and i32 %16, 61440
  %18 = icmp eq i32 %17, 49152
  br i1 %18, label %19, label %21

19:                                               ; preds = %14
  %20 = tail call i32 @unlink(ptr noundef nonnull %5) #16
  br label %21

21:                                               ; preds = %19, %14, %11
  call void @llvm.lifetime.end.p0(i64 144, ptr nonnull %2) #16
  br label %22

22:                                               ; preds = %21, %8, %1
  ret void
}